; Function Attrs: nounwind uwtable
define zeroext range(i8 0, 2) i8 @l___private_Lean_Compiler_IR_RC_0__Lean_IR_ExplicitRC_isFirstOcc(ptr noundef readonly captures(none) %0, ptr noundef %1) local_unnamed_addr #0 {
  %3 = load ptr, ptr @l_Lean_IR_instInhabitedArg, align 8, !tbaa !4
  %4 = ptrtoint ptr %1 to i64
  %5 = and i64 %4, 1
  %.not.i14.not = icmp eq i64 %5, 0
  br i1 %.not.i14.not, label %32, label %6

6:                                                ; preds = %2
  %7 = lshr i64 %4, 1
  %8 = getelementptr i8, ptr %0, i64 8
  %.val.i = load i64, ptr %8, align 8, !tbaa !13
  %9 = icmp ult i64 %7, %.val.i
  br i1 %9, label %11, label %lean_array_get.exit.thread19

lean_array_get.exit.thread19:                     ; preds = %6
  %10 = tail call ptr @lean_array_get_panic(ptr noundef %3) #6
  br label %lean_inc.exit

11:                                               ; preds = %6
  %12 = ptrtoint ptr %3 to i64
  %13 = and i64 %12, 1
  %.not14.i = icmp eq i64 %13, 0
  br i1 %.not14.i, label %14, label %lean_dec.exit.i

14:                                               ; preds = %11
  %15 = load i32, ptr %3, align 4, !tbaa !8
  %16 = icmp sgt i32 %15, 1
  br i1 %16, label %17, label %19, !prof !11

17:                                               ; preds = %14
  %18 = add nsw i32 %15, -1
  store i32 %18, ptr %3, align 4, !tbaa !8
  br label %lean_dec.exit.i

19:                                               ; preds = %14
  %.not.i.i = icmp eq i32 %15, 0
  br i1 %.not.i.i, label %lean_dec.exit.i, label %20

20:                                               ; preds = %19
  tail call void @lean_dec_ref_cold(ptr noundef nonnull %3) #6
  br label %lean_dec.exit.i

lean_dec.exit.i:                                  ; preds = %20, %19, %17, %11
  %21 = getelementptr inbounds nuw i8, ptr %0, i64 24
  %22 = getelementptr inbounds nuw [0 x ptr], ptr %21, i64 0, i64 %7
  %23 = load ptr, ptr %22, align 8, !tbaa !4
  %24 = ptrtoint ptr %23 to i64
  %25 = and i64 %24, 1
  %.not.i11.i = icmp eq i64 %25, 0
  br i1 %.not.i11.i, label %26, label %lean_inc.exit

26:                                               ; preds = %lean_dec.exit.i
  %.val.i.i.i = load i32, ptr %23, align 4, !tbaa !8
  %27 = icmp sgt i32 %.val.i.i.i, 0
  br i1 %27, label %28, label %30, !prof !11

28:                                               ; preds = %26
  %29 = add nuw i32 %.val.i.i.i, 1
  store i32 %29, ptr %23, align 4, !tbaa !8
  br label %lean_inc.exit

30:                                               ; preds = %26
  %.not.i.i.i = icmp eq i32 %.val.i.i.i, 0
  br i1 %.not.i.i.i, label %lean_inc.exit, label %31

31:                                               ; preds = %30
  tail call void @lean_inc_ref_cold(ptr noundef nonnull %23) #6
  br label %lean_inc.exit

32:                                               ; preds = %2
  %33 = tail call ptr @lean_array_get_panic(ptr noundef %3) #6
  %.val.i15 = load i32, ptr %1, align 4, !tbaa !8
  %34 = icmp sgt i32 %.val.i15, 0
  br i1 %34, label %35, label %37, !prof !11

35:                                               ; preds = %32
  %36 = add nuw i32 %.val.i15, 1
  store i32 %36, ptr %1, align 4, !tbaa !8
  br label %lean_inc.exit

37:                                               ; preds = %32
  %.not.i16 = icmp eq i32 %.val.i15, 0
  br i1 %.not.i16, label %lean_inc.exit, label %38

38:                                               ; preds = %37
  tail call void @lean_inc_ref_cold(ptr noundef nonnull %1) #6
  br label %lean_inc.exit

lean_inc.exit:                                    ; preds = %31, %30, %28, %lean_dec.exit.i, %38, %37, %35, %lean_array_get.exit.thread19
  %.1.i18 = phi ptr [ %10, %lean_array_get.exit.thread19 ], [ %33, %35 ], [ %33, %37 ], [ %33, %38 ], [ %23, %lean_dec.exit.i ], [ %23, %28 ], [ %23, %30 ], [ %23, %31 ]
  %39 = tail call zeroext i8 @l_Nat_allTR_loop___at___private_Lean_Compiler_IR_RC_0__Lean_IR_ExplicitRC_isFirstOcc___spec__1(ptr noundef %0, ptr poison, ptr noundef %.1.i18, ptr noundef %1, ptr noundef %1, ptr nonnull poison)
  %40 = ptrtoint ptr %.1.i18 to i64
  %41 = and i64 %40, 1
  %.not = icmp eq i64 %41, 0
  br i1 %.not, label %42, label %lean_dec.exit11

42:                                               ; preds = %lean_inc.exit
  %43 = load i32, ptr %.1.i18, align 4, !tbaa !8
  %44 = icmp sgt i32 %43, 1
  br i1 %44, label %45, label %47, !prof !11

45:                                               ; preds = %42
  %46 = add nsw i32 %43, -1
  store i32 %46, ptr %.1.i18, align 4, !tbaa !8
  br label %lean_dec.exit11

47:                                               ; preds = %42
  %.not.i = icmp eq i32 %43, 0
  br i1 %.not.i, label %lean_dec.exit11, label %48

48:                                               ; preds = %47
  tail call void @lean_dec_ref_cold(ptr noundef nonnull %.1.i18) #6
  br label %lean_dec.exit11

lean_dec.exit11:                                  ; preds = %48, %47, %45, %lean_inc.exit
  br i1 %.not.i14.not, label %49, label %lean_dec.exit

49:                                               ; preds = %lean_dec.exit11
  %50 = load i32, ptr %1, align 4, !tbaa !8
  %51 = icmp sgt i32 %50, 1
  br i1 %51, label %52, label %54, !prof !11

52:                                               ; preds = %49
  %53 = add nsw i32 %50, -1
  store i32 %53, ptr %1, align 4, !tbaa !8
  br label %lean_dec.exit

54:                                               ; preds = %49
  %.not.i12 = icmp eq i32 %50, 0
  br i1 %.not.i12, label %lean_dec.exit, label %55

55:                                               ; preds = %54
  tail call void @lean_dec_ref_cold(ptr noundef nonnull %1) #6
  br label %lean_dec.exit

lean_dec.exit:                                    ; preds = %55, %54, %52, %lean_dec.exit11
  ret i8 %39
}